; Function Attrs: nounwind sspstrong uwtable
define dso_local void @rb_mark_tbl_no_pin(ptr noundef %0) local_unnamed_addr #0 {
  %.not.i = icmp eq ptr %0, null
  br i1 %.not.i, label %gc_mark_tbl_no_pin.exit, label %2

2:                                                ; preds = %1
  %3 = getelementptr inbounds nuw i8, ptr %0, i64 16
  %4 = load i64, ptr %3, align 8, !tbaa !252
  %5 = icmp eq i64 %4, 0
  br i1 %5, label %gc_mark_tbl_no_pin.exit, label %6

6:                                                ; preds = %2
  %7 = tail call i32 @rb_st_foreach(ptr noundef nonnull %0, ptr noundef nonnull @gc_mark_tbl_no_pin_i, i64 noundef 0) #7
  br label %gc_mark_tbl_no_pin.exit

gc_mark_tbl_no_pin.exit:                          ; preds = %1, %2, %6
  ret void
}